target datalayout = "e-m:e-p270:32:32-p271:32:32-p272:64:64-i64:64-i128:128-f80:128-n8:16:32:64-S128"
target triple = "x86_64-pc-linux-gnu"

%struct.ossl_store_search_st = type { i32, ptr, ptr, ptr, ptr, i64 }

@.str.2 = private unnamed_addr constant [36 x i8] c"../openssl/crypto/store/store_lib.c\00", align 1
@__func__.OSSL_STORE_SEARCH_by_key_fingerprint = private unnamed_addr constant [37 x i8] c"OSSL_STORE_SEARCH_by_key_fingerprint\00", align 1
@.str.12 = private unnamed_addr constant [39 x i8] c"%s size is %d, fingerprint size is %zu\00", align 1

; Function Attrs: nounwind uwtable
define ptr @OSSL_STORE_SEARCH_by_key_fingerprint(ptr noundef %0, ptr noundef %1, i64 noundef %2) #0 {
  %4 = alloca ptr, align 8
  %5 = alloca ptr, align 8
  %6 = alloca ptr, align 8
  %7 = alloca i64, align 8
  %8 = alloca ptr, align 8
  %9 = alloca i32, align 4
  %10 = alloca i32, align 4
  store ptr %0, ptr %5, align 8, !tbaa !101
  store ptr %1, ptr %6, align 8, !tbaa !3
  store i64 %2, ptr %7, align 8, !tbaa !23
  call void @llvm.lifetime.start.p0(i64 8, ptr %8) #8
  %11 = call noalias ptr @CRYPTO_zalloc(i64 noundef 48, ptr noundef @.str.2, i32 noundef 935)
  store ptr %11, ptr %8, align 8, !tbaa !60
  call void @llvm.lifetime.start.p0(i64 4, ptr %9) #8
  %12 = load ptr, ptr %8, align 8, !tbaa !60
  %13 = icmp eq ptr %12, null
  br i1 %13, label %14, label %15

14:                                               ; preds = %3
  store ptr null, ptr %4, align 8
  store i32 1, ptr %10, align 4
  br label %49

15:                                               ; preds = %3
  %16 = load ptr, ptr %5, align 8, !tbaa !101
  %17 = call i32 @EVP_MD_get_size(ptr noundef %16)
  store i32 %17, ptr %9, align 4, !tbaa !21
  %18 = load i32, ptr %9, align 4, !tbaa !21
  %19 = icmp sle i32 %18, 0
  br i1 %19, label %20, label %22

20:                                               ; preds = %15
  %21 = load ptr, ptr %8, align 8, !tbaa !60
  call void @CRYPTO_free(ptr noundef %21, ptr noundef @.str.2, i32 noundef 943)
  store ptr null, ptr %4, align 8
  store i32 1, ptr %10, align 4
  br label %49

22:                                               ; preds = %15
  %23 = load ptr, ptr %5, align 8, !tbaa !101
  %24 = icmp ne ptr %23, null
  br i1 %24, label %25, label %36

25:                                               ; preds = %22
  %26 = load i64, ptr %7, align 8, !tbaa !23
  %27 = load i32, ptr %9, align 4, !tbaa !21
  %28 = sext i32 %27 to i64
  %29 = icmp ne i64 %26, %28
  br i1 %29, label %30, label %36

30:                                               ; preds = %25
  call void @ERR_new()
  call void @ERR_set_debug(ptr noundef @.str.2, i32 noundef 948, ptr noundef @__func__.OSSL_STORE_SEARCH_by_key_fingerprint)
  %31 = load ptr, ptr %5, align 8, !tbaa !101
  %32 = call ptr @EVP_MD_get0_name(ptr noundef %31)
  %33 = load i32, ptr %9, align 4, !tbaa !21
  %34 = load i64, ptr %7, align 8, !tbaa !23
  call void (i32, i32, ptr, ...) @ERR_set_error(i32 noundef 44, i32 noundef 121, ptr noundef @.str.12, ptr noundef %32, i32 noundef %33, i64 noundef %34)
  %35 = load ptr, ptr %8, align 8, !tbaa !60
  call void @CRYPTO_free(ptr noundef %35, ptr noundef @.str.2, i32 noundef 952)
  store ptr null, ptr %4, align 8
  store i32 1, ptr %10, align 4
  br label %49

36:                                               ; preds = %25, %22
  %37 = load ptr, ptr %8, align 8, !tbaa !60
  %38 = getelementptr inbounds nuw %struct.ossl_store_search_st, ptr %37, i32 0, i32 0
  store i32 3, ptr %38, align 8, !tbaa !66
  %39 = load ptr, ptr %5, align 8, !tbaa !101
  %40 = load ptr, ptr %8, align 8, !tbaa !60
  %41 = getelementptr inbounds nuw %struct.ossl_store_search_st, ptr %40, i32 0, i32 3
  store ptr %39, ptr %41, align 8, !tbaa !73
  %42 = load ptr, ptr %6, align 8, !tbaa !3
  %43 = load ptr, ptr %8, align 8, !tbaa !60
  %44 = getelementptr inbounds nuw %struct.ossl_store_search_st, ptr %43, i32 0, i32 4
  store ptr %42, ptr %44, align 8, !tbaa !74
  %45 = load i64, ptr %7, align 8, !tbaa !23
  %46 = load ptr, ptr %8, align 8, !tbaa !60
  %47 = getelementptr inbounds nuw %struct.ossl_store_search_st, ptr %46, i32 0, i32 5
  store i64 %45, ptr %47, align 8, !tbaa !75
  %48 = load ptr, ptr %8, align 8, !tbaa !60
  store ptr %48, ptr %4, align 8
  store i32 1, ptr %10, align 4
  br label %49

49:                                               ; preds = %36, %30, %20, %14
  call void @llvm.lifetime.end.p0(i64 4, ptr %9) #8
  call void @llvm.lifetime.end.p0(i64 8, ptr %8) #8
  %50 = load ptr, ptr %4, align 8
  ret ptr %50
}