; Function Attrs: nounwind uwtable
define ptr @OSSL_STORE_SEARCH_by_key_fingerprint(ptr noundef %0, ptr noundef %1, i64 noundef %2) local_unnamed_addr #0 {
  %4 = tail call noalias ptr @CRYPTO_zalloc(i64 noundef 48, ptr noundef nonnull @.str.2, i32 noundef 935) #9
  %5 = icmp eq ptr %4, null
  br i1 %5, label %18, label %6

6:                                                ; preds = %3
  %7 = tail call i32 @EVP_MD_get_size(ptr noundef %0) #9
  %8 = icmp slt i32 %7, 1
  br i1 %8, label %9, label %10

9:                                                ; preds = %6
  tail call void @CRYPTO_free(ptr noundef nonnull %4, ptr noundef nonnull @.str.2, i32 noundef 943) #9
  br label %18

10:                                               ; preds = %6
  %.not = icmp eq ptr %0, null
  %11 = zext nneg i32 %7 to i64
  %.not23 = icmp eq i64 %2, %11
  %or.cond = select i1 %.not, i1 true, i1 %.not23
  br i1 %or.cond, label %14, label %12

12:                                               ; preds = %10
  tail call void @ERR_new() #9
  tail call void @ERR_set_debug(ptr noundef nonnull @.str.2, i32 noundef 948, ptr noundef nonnull @__func__.OSSL_STORE_SEARCH_by_key_fingerprint) #9
  %13 = tail call ptr @EVP_MD_get0_name(ptr noundef nonnull %0) #9
  tail call void (i32, i32, ptr, ...) @ERR_set_error(i32 noundef 44, i32 noundef 121, ptr noundef nonnull @.str.12, ptr noundef %13, i32 noundef %7, i64 noundef %2) #9
  tail call void @CRYPTO_free(ptr noundef nonnull %4, ptr noundef nonnull @.str.2, i32 noundef 952) #9
  br label %18

14:                                               ; preds = %10
  store i32 3, ptr %4, align 8, !tbaa !47
  %15 = getelementptr inbounds nuw i8, ptr %4, i64 24
  store ptr %0, ptr %15, align 8, !tbaa !54
  %16 = getelementptr inbounds nuw i8, ptr %4, i64 32
  store ptr %1, ptr %16, align 8, !tbaa !55
  %17 = getelementptr inbounds nuw i8, ptr %4, i64 40
  store i64 %2, ptr %17, align 8, !tbaa !56
  br label %18

18:                                               ; preds = %3, %14, %12, %9
  %.0 = phi ptr [ null, %9 ], [ null, %12 ], [ %4, %14 ], [ null, %3 ]
  ret ptr %.0
}